target datalayout = "e-m:e-p270:32:32-p271:32:32-p272:64:64-i64:64-i128:128-f80:128-n8:16:32:64-S128"
target triple = "x86_64-pc-linux-gnu"

%struct.ossl_namemap_st = type { i8, ptr, ptr, ptr, i32 }

@.str = private unnamed_addr constant [33 x i8] c"../openssl/crypto/core_namemap.c\00", align 1

; Function Attrs: inlinehint nounwind uwtable
define internal void @sk_NAMES_pop_free(ptr noundef %0, ptr noundef %1) #3 {
  %3 = alloca ptr, align 8
  %4 = alloca ptr, align 8
  store ptr %0, ptr %3, align 8, !tbaa !26
  store ptr %1, ptr %4, align 8, !tbaa !20
  %5 = load ptr, ptr %3, align 8, !tbaa !26
  %6 = load ptr, ptr %4, align 8, !tbaa !20
  call void @OPENSSL_sk_pop_free(ptr noundef %5, ptr noundef %6)
  ret void
}

; Function Attrs: nounwind uwtable
define void @ossl_namemap_free(ptr noundef %0) #0 {
  %2 = alloca ptr, align 8
  store ptr %0, ptr %2, align 8, !tbaa !8
  %3 = load ptr, ptr %2, align 8, !tbaa !8
  %4 = icmp eq ptr %3, null
  br i1 %4, label %11, label %5

5:                                                ; preds = %1
  %6 = load ptr, ptr %2, align 8, !tbaa !8
  %7 = load i8, ptr %6, align 8
  %8 = and i8 %7, 1
  %9 = zext i8 %8 to i32
  %10 = icmp ne i32 %9, 0
  br i1 %10, label %11, label %12

11:                                               ; preds = %5, %1
  br label %23

12:                                               ; preds = %5
  %13 = load ptr, ptr %2, align 8, !tbaa !8
  %14 = getelementptr inbounds nuw %struct.ossl_namemap_st, ptr %13, i32 0, i32 3
  %15 = load ptr, ptr %14, align 8, !tbaa !19
  call void @sk_NAMES_pop_free(ptr noundef %15, ptr noundef @names_free)
  %16 = load ptr, ptr %2, align 8, !tbaa !8
  %17 = getelementptr inbounds nuw %struct.ossl_namemap_st, ptr %16, i32 0, i32 1
  %18 = load ptr, ptr %17, align 8, !tbaa !18
  call void @ossl_ht_free(ptr noundef %18)
  %19 = load ptr, ptr %2, align 8, !tbaa !8
  %20 = getelementptr inbounds nuw %struct.ossl_namemap_st, ptr %19, i32 0, i32 2
  %21 = load ptr, ptr %20, align 8, !tbaa !14
  call void @CRYPTO_THREAD_lock_free(ptr noundef %21)
  %22 = load ptr, ptr %2, align 8, !tbaa !8
  call void @CRYPTO_free(ptr noundef %22, ptr noundef @.str, i32 noundef 545)
  br label %23

23:                                               ; preds = %12, %11
  ret void
}

; Function Attrs: nounwind uwtable
define void @ossl_stored_namemap_free(ptr noundef %0) #0 {
  %2 = alloca ptr, align 8
  %3 = alloca ptr, align 8
  store ptr %0, ptr %2, align 8, !tbaa !20
  call void @llvm.lifetime.start.p0(i64 8, ptr %3) #7
  %4 = load ptr, ptr %2, align 8, !tbaa !20
  store ptr %4, ptr %3, align 8, !tbaa !8
  %5 = load ptr, ptr %3, align 8, !tbaa !8
  %6 = icmp ne ptr %5, null
  br i1 %6, label %7, label %13

7:                                                ; preds = %1
  %8 = load ptr, ptr %3, align 8, !tbaa !8
  %9 = load i8, ptr %8, align 8
  %10 = and i8 %9, -2
  %11 = or i8 %10, 0
  store i8 %11, ptr %8, align 8
  %12 = load ptr, ptr %3, align 8, !tbaa !8
  call void @ossl_namemap_free(ptr noundef %12)
  br label %13

13:                                               ; preds = %7, %1
  call void @llvm.lifetime.end.p0(i64 8, ptr %3) #7
  ret void
}