; Function Attrs: nounwind uwtable
define void @ossl_stored_namemap_free(ptr noundef %0) local_unnamed_addr #0 {
  %.not = icmp eq ptr %0, null
  br i1 %.not, label %10, label %ossl_namemap_free.exit

ossl_namemap_free.exit:                           ; preds = %1
  %2 = load i8, ptr %0, align 8
  %3 = and i8 %2, -2
  store i8 %3, ptr %0, align 8
  %4 = getelementptr inbounds nuw i8, ptr %0, i64 24
  %5 = load ptr, ptr %4, align 8, !tbaa !16
  tail call void @OPENSSL_sk_pop_free(ptr noundef %5, ptr noundef nonnull @names_free) #6
  %6 = getelementptr inbounds nuw i8, ptr %0, i64 8
  %7 = load ptr, ptr %6, align 8, !tbaa !15
  tail call void @ossl_ht_free(ptr noundef %7) #6
  %8 = getelementptr inbounds nuw i8, ptr %0, i64 16
  %9 = load ptr, ptr %8, align 8, !tbaa !11
  tail call void @CRYPTO_THREAD_lock_free(ptr noundef %9) #6
  tail call void @CRYPTO_free(ptr noundef nonnull %0, ptr noundef nonnull @.str, i32 noundef 545) #6
  br label %10

10:                                               ; preds = %ossl_namemap_free.exit, %1
  ret void
}